(iCrypto.PublicKey.RSA
_RSAobj
p0
(dp2
S'e'
p3
L65537L
sS'n'
p4
L154479479684156621181177371242917155651959195277401860185494165860912048841743276135685089448698390671205794221475224525476203867133137051827456882936281372829885604207079859572276289685467020677407847259774605772865428342557366371792904195572507519854177464503423597667692962469728444395515514838149206037243L
sb.