(iCrypto.PublicKey.RSA
_RSAobj
p0
(dp2
S'e'
p3
L65537L
sS'n'
p4
L130452884173681678784483096537589274566275348965820708998907703909729919244077577272478649902737924045373388193009449200817821963982626925149914554589819574365626324149437385149522406582753720486326591338810300752668902034473587860515339871013207840020199317827168917242469823667256561583449910863604502890491L
sb.