(iCrypto.PublicKey.RSA
_RSAobj
p0
(dp2
S'e'
p3
L65537L
sS'n'
p4
L125992625522938257427864583738936597643166722317723391018493024204056252644497061712118605827317985537639610435683347747937800292211235005227595807490353389084042101382802682518346517923006861491690305609486977674325920882483040584939407146682553402363180159011431142857038257956365009083134371992555244050573L
sb.