(iCrypto.PublicKey.RSA
_RSAobj
p0
(dp2
S'e'
p3
L65537L
sS'n'
p4
L135732084139890753936148068909597439556068963310033700693548047421273180389435810328844610147599515799113108015254569258403433620789442115996522042623049955394396335763782641256296103298298999242976247897218153003629485096745554349307094848234037782034672363699413242327419702288003312111074773499654716061821L
sb.